ARM GAS  /var/folders/kw/xnk0gy0n665fyhthzgwb7c200000gp/T//ccxZVQ2H.s 			page 1


   1              		.cpu cortex-m4
   2              		.eabi_attribute 27, 1
   3              		.eabi_attribute 28, 1
   4              		.eabi_attribute 20, 1
   5              		.eabi_attribute 21, 1
   6              		.eabi_attribute 23, 3
   7              		.eabi_attribute 24, 1
   8              		.eabi_attribute 25, 1
   9              		.eabi_attribute 26, 1
  10              		.eabi_attribute 30, 6
  11              		.eabi_attribute 34, 1
  12              		.eabi_attribute 18, 4
  13              		.file	"g4xx_ll_gpio.c"
  14              		.text
  15              	.Ltext0:
  16              		.cfi_sections	.debug_frame
  17              		.section	.text.LL_GPIO_Init,"ax",%progbits
  18              		.align	1
  19              		.global	LL_GPIO_Init
  20              		.arch armv7e-m
  21              		.syntax unified
  22              		.thumb
  23              		.thumb_func
  24              		.fpu fpv4-sp-d16
  26              	LL_GPIO_Init:
  27              	.LFB135:
  28              		.file 1 "Drivers/G4xx_LL_Driver/Src/g4xx_ll_gpio.c"
   1:Drivers/G4xx_LL_Driver/Src/g4xx_ll_gpio.c **** /**
   2:Drivers/G4xx_LL_Driver/Src/g4xx_ll_gpio.c ****  ******************************************************************************
   3:Drivers/G4xx_LL_Driver/Src/g4xx_ll_gpio.c ****  * @file    g4xx_ll_rcc.c
   4:Drivers/G4xx_LL_Driver/Src/g4xx_ll_gpio.c ****  * @author  Gatis Fridenbergs
   5:Drivers/G4xx_LL_Driver/Src/g4xx_ll_gpio.c ****  * @brief   GPIO LL module driver.
   6:Drivers/G4xx_LL_Driver/Src/g4xx_ll_gpio.c ****  * 
   7:Drivers/G4xx_LL_Driver/Src/g4xx_ll_gpio.c ****  ******************************************************************************
   8:Drivers/G4xx_LL_Driver/Src/g4xx_ll_gpio.c ****  * @attention
   9:Drivers/G4xx_LL_Driver/Src/g4xx_ll_gpio.c ****  *
  10:Drivers/G4xx_LL_Driver/Src/g4xx_ll_gpio.c ****  * Copyright (c) 2023 LielaisG.
  11:Drivers/G4xx_LL_Driver/Src/g4xx_ll_gpio.c ****  * https://github.com/LielaisG
  12:Drivers/G4xx_LL_Driver/Src/g4xx_ll_gpio.c ****  * 
  13:Drivers/G4xx_LL_Driver/Src/g4xx_ll_gpio.c ****  * All rights reserved.
  14:Drivers/G4xx_LL_Driver/Src/g4xx_ll_gpio.c ****  *
  15:Drivers/G4xx_LL_Driver/Src/g4xx_ll_gpio.c ****  ******************************************************************************
  16:Drivers/G4xx_LL_Driver/Src/g4xx_ll_gpio.c **** */
  17:Drivers/G4xx_LL_Driver/Src/g4xx_ll_gpio.c **** 
  18:Drivers/G4xx_LL_Driver/Src/g4xx_ll_gpio.c **** #include "g4xx_ll_gpio.h"
  19:Drivers/G4xx_LL_Driver/Src/g4xx_ll_gpio.c **** 
  20:Drivers/G4xx_LL_Driver/Src/g4xx_ll_gpio.c **** /**
  21:Drivers/G4xx_LL_Driver/Src/g4xx_ll_gpio.c ****  * @brief Initialize the GPIOx peripheral according to the specified parameters.
  22:Drivers/G4xx_LL_Driver/Src/g4xx_ll_gpio.c **** */
  23:Drivers/G4xx_LL_Driver/Src/g4xx_ll_gpio.c **** LL_StatusTypeDef LL_GPIO_Init(LL_GPIO_HandleTypeDef *GPIOx)
  24:Drivers/G4xx_LL_Driver/Src/g4xx_ll_gpio.c **** {
  29              		.loc 1 24 1
  30              		.cfi_startproc
  31              		@ args = 0, pretend = 0, frame = 16
  32              		@ frame_needed = 1, uses_anonymous_args = 0
  33              		@ link register save eliminated.
  34 0000 80B4     		push	{r7}
ARM GAS  /var/folders/kw/xnk0gy0n665fyhthzgwb7c200000gp/T//ccxZVQ2H.s 			page 2


  35              	.LCFI0:
  36              		.cfi_def_cfa_offset 4
  37              		.cfi_offset 7, -4
  38 0002 85B0     		sub	sp, sp, #20
  39              	.LCFI1:
  40              		.cfi_def_cfa_offset 24
  41 0004 00AF     		add	r7, sp, #0
  42              	.LCFI2:
  43              		.cfi_def_cfa_register 7
  44 0006 7860     		str	r0, [r7, #4]
  25:Drivers/G4xx_LL_Driver/Src/g4xx_ll_gpio.c ****     LL_StatusTypeDef tmp_status = LL_OK;
  45              		.loc 1 25 22
  46 0008 0023     		movs	r3, #0
  47 000a FB73     		strb	r3, [r7, #15]
  26:Drivers/G4xx_LL_Driver/Src/g4xx_ll_gpio.c **** 
  27:Drivers/G4xx_LL_Driver/Src/g4xx_ll_gpio.c ****     /* Enable clock for the GPIO and reset it */
  28:Drivers/G4xx_LL_Driver/Src/g4xx_ll_gpio.c ****     if (GPIOx->Init.CLOCK == ENABLE)
  48              		.loc 1 28 20
  49 000c 7B68     		ldr	r3, [r7, #4]
  50 000e 1B79     		ldrb	r3, [r3, #4]	@ zero_extendqisi2
  51              		.loc 1 28 8
  52 0010 012B     		cmp	r3, #1
  53 0012 2FD1     		bne	.L2
  29:Drivers/G4xx_LL_Driver/Src/g4xx_ll_gpio.c ****     {
  30:Drivers/G4xx_LL_Driver/Src/g4xx_ll_gpio.c ****         if (GPIOx->Instance == GPIOA)
  54              		.loc 1 30 18
  55 0014 7B68     		ldr	r3, [r7, #4]
  56 0016 1B68     		ldr	r3, [r3]
  57              		.loc 1 30 12
  58 0018 B3F1904F 		cmp	r3, #1207959552
  59 001c 12D1     		bne	.L3
  31:Drivers/G4xx_LL_Driver/Src/g4xx_ll_gpio.c ****         {
  32:Drivers/G4xx_LL_Driver/Src/g4xx_ll_gpio.c ****             RCC->AHB2ENR    |=  GPIOA_CLK_EN;
  60              		.loc 1 32 29
  61 001e 3A4B     		ldr	r3, .L9
  62 0020 DB6C     		ldr	r3, [r3, #76]
  63 0022 394A     		ldr	r2, .L9
  64 0024 43F00103 		orr	r3, r3, #1
  65 0028 D364     		str	r3, [r2, #76]
  33:Drivers/G4xx_LL_Driver/Src/g4xx_ll_gpio.c ****             if (GPIOx->Init.PORT == 5)
  66              		.loc 1 33 28
  67 002a 7B68     		ldr	r3, [r7, #4]
  68 002c 9B68     		ldr	r3, [r3, #8]
  69              		.loc 1 33 16
  70 002e 052B     		cmp	r3, #5
  71 0030 22D1     		bne	.L4
  34:Drivers/G4xx_LL_Driver/Src/g4xx_ll_gpio.c ****             {
  35:Drivers/G4xx_LL_Driver/Src/g4xx_ll_gpio.c ****                 GPIOx->Instance->BRR    |=  BR5;
  72              		.loc 1 35 22
  73 0032 7B68     		ldr	r3, [r7, #4]
  74 0034 1B68     		ldr	r3, [r3]
  75              		.loc 1 35 41
  76 0036 9A6A     		ldr	r2, [r3, #40]
  77              		.loc 1 35 22
  78 0038 7B68     		ldr	r3, [r7, #4]
  79 003a 1B68     		ldr	r3, [r3]
  80              		.loc 1 35 41
ARM GAS  /var/folders/kw/xnk0gy0n665fyhthzgwb7c200000gp/T//ccxZVQ2H.s 			page 3


  81 003c 42F40012 		orr	r2, r2, #2097152
  82 0040 9A62     		str	r2, [r3, #40]
  83 0042 19E0     		b	.L4
  84              	.L3:
  36:Drivers/G4xx_LL_Driver/Src/g4xx_ll_gpio.c ****             }
  37:Drivers/G4xx_LL_Driver/Src/g4xx_ll_gpio.c ****         }
  38:Drivers/G4xx_LL_Driver/Src/g4xx_ll_gpio.c ****         else if (GPIOx->Instance == GPIOC)
  85              		.loc 1 38 23
  86 0044 7B68     		ldr	r3, [r7, #4]
  87 0046 1B68     		ldr	r3, [r3]
  88              		.loc 1 38 17
  89 0048 304A     		ldr	r2, .L9+4
  90 004a 9342     		cmp	r3, r2
  91 004c 14D1     		bne	.L4
  39:Drivers/G4xx_LL_Driver/Src/g4xx_ll_gpio.c ****         {
  40:Drivers/G4xx_LL_Driver/Src/g4xx_ll_gpio.c ****             RCC->AHB2ENR    |=  GPIOC_CLK_EN;
  92              		.loc 1 40 29
  93 004e 2E4B     		ldr	r3, .L9
  94 0050 DB6C     		ldr	r3, [r3, #76]
  95 0052 2D4A     		ldr	r2, .L9
  96 0054 43F00403 		orr	r3, r3, #4
  97 0058 D364     		str	r3, [r2, #76]
  41:Drivers/G4xx_LL_Driver/Src/g4xx_ll_gpio.c ****             if (GPIOx->Init.PORT == 13)
  98              		.loc 1 41 28
  99 005a 7B68     		ldr	r3, [r7, #4]
 100 005c 9B68     		ldr	r3, [r3, #8]
 101              		.loc 1 41 16
 102 005e 0D2B     		cmp	r3, #13
 103 0060 0AD1     		bne	.L4
  42:Drivers/G4xx_LL_Driver/Src/g4xx_ll_gpio.c ****             {
  43:Drivers/G4xx_LL_Driver/Src/g4xx_ll_gpio.c ****                 GPIOx->Instance->BRR    |=  BR13;
 104              		.loc 1 43 22
 105 0062 7B68     		ldr	r3, [r7, #4]
 106 0064 1B68     		ldr	r3, [r3]
 107              		.loc 1 43 41
 108 0066 9A6A     		ldr	r2, [r3, #40]
 109              		.loc 1 43 22
 110 0068 7B68     		ldr	r3, [r7, #4]
 111 006a 1B68     		ldr	r3, [r3]
 112              		.loc 1 43 41
 113 006c 42F00052 		orr	r2, r2, #536870912
 114 0070 9A62     		str	r2, [r3, #40]
 115 0072 01E0     		b	.L4
 116              	.L2:
  44:Drivers/G4xx_LL_Driver/Src/g4xx_ll_gpio.c ****             }
  45:Drivers/G4xx_LL_Driver/Src/g4xx_ll_gpio.c ****         }  
  46:Drivers/G4xx_LL_Driver/Src/g4xx_ll_gpio.c ****     }
  47:Drivers/G4xx_LL_Driver/Src/g4xx_ll_gpio.c ****     else
  48:Drivers/G4xx_LL_Driver/Src/g4xx_ll_gpio.c ****     {
  49:Drivers/G4xx_LL_Driver/Src/g4xx_ll_gpio.c ****         tmp_status = LL_ERROR;
 117              		.loc 1 49 20
 118 0074 0123     		movs	r3, #1
 119 0076 FB73     		strb	r3, [r7, #15]
 120              	.L4:
  50:Drivers/G4xx_LL_Driver/Src/g4xx_ll_gpio.c ****     }
  51:Drivers/G4xx_LL_Driver/Src/g4xx_ll_gpio.c **** 
  52:Drivers/G4xx_LL_Driver/Src/g4xx_ll_gpio.c ****     /* GPIO mode configuration */
ARM GAS  /var/folders/kw/xnk0gy0n665fyhthzgwb7c200000gp/T//ccxZVQ2H.s 			page 4


  53:Drivers/G4xx_LL_Driver/Src/g4xx_ll_gpio.c ****     if (GPIOx->Init.MODE == OUTPUT)
 121              		.loc 1 53 20
 122 0078 7B68     		ldr	r3, [r7, #4]
 123 007a DB68     		ldr	r3, [r3, #12]
 124              		.loc 1 53 8
 125 007c 012B     		cmp	r3, #1
 126 007e 1ED1     		bne	.L5
  54:Drivers/G4xx_LL_Driver/Src/g4xx_ll_gpio.c ****     {
  55:Drivers/G4xx_LL_Driver/Src/g4xx_ll_gpio.c ****         if (GPIOx->Init.PORT == 5)
 127              		.loc 1 55 24
 128 0080 7B68     		ldr	r3, [r7, #4]
 129 0082 9B68     		ldr	r3, [r3, #8]
 130              		.loc 1 55 12
 131 0084 052B     		cmp	r3, #5
 132 0086 37D1     		bne	.L6
  56:Drivers/G4xx_LL_Driver/Src/g4xx_ll_gpio.c ****         {
  57:Drivers/G4xx_LL_Driver/Src/g4xx_ll_gpio.c ****             GPIOx->Instance->MODER      |=  (OUTPUT << MODE5);
 133              		.loc 1 57 18
 134 0088 7B68     		ldr	r3, [r7, #4]
 135 008a 1B68     		ldr	r3, [r3]
 136              		.loc 1 57 41
 137 008c 1A68     		ldr	r2, [r3]
 138              		.loc 1 57 18
 139 008e 7B68     		ldr	r3, [r7, #4]
 140 0090 1B68     		ldr	r3, [r3]
 141              		.loc 1 57 41
 142 0092 42F48062 		orr	r2, r2, #1024
 143 0096 1A60     		str	r2, [r3]
  58:Drivers/G4xx_LL_Driver/Src/g4xx_ll_gpio.c ****             GPIOx->Instance->OTYPER     |=  (PUSH_PULL << OT5);
 144              		.loc 1 58 18
 145 0098 7B68     		ldr	r3, [r7, #4]
 146 009a 1A68     		ldr	r2, [r3]
 147 009c 7B68     		ldr	r3, [r7, #4]
 148 009e 1B68     		ldr	r3, [r3]
 149              		.loc 1 58 41
 150 00a0 5268     		ldr	r2, [r2, #4]
 151 00a2 5A60     		str	r2, [r3, #4]
  59:Drivers/G4xx_LL_Driver/Src/g4xx_ll_gpio.c ****             GPIOx->Instance->OSPEEDR    |=  (LOW_SPEED << OSPEEDR5);
 152              		.loc 1 59 18
 153 00a4 7B68     		ldr	r3, [r7, #4]
 154 00a6 1A68     		ldr	r2, [r3]
 155 00a8 7B68     		ldr	r3, [r7, #4]
 156 00aa 1B68     		ldr	r3, [r3]
 157              		.loc 1 59 41
 158 00ac 9268     		ldr	r2, [r2, #8]
 159 00ae 9A60     		str	r2, [r3, #8]
  60:Drivers/G4xx_LL_Driver/Src/g4xx_ll_gpio.c ****             GPIOx->Instance->PUPDR      |=  (NO_PULL << PUPDR5);
 160              		.loc 1 60 18
 161 00b0 7B68     		ldr	r3, [r7, #4]
 162 00b2 1A68     		ldr	r2, [r3]
 163 00b4 7B68     		ldr	r3, [r7, #4]
 164 00b6 1B68     		ldr	r3, [r3]
 165              		.loc 1 60 41
 166 00b8 D268     		ldr	r2, [r2, #12]
 167 00ba DA60     		str	r2, [r3, #12]
 168 00bc 1CE0     		b	.L6
 169              	.L5:
ARM GAS  /var/folders/kw/xnk0gy0n665fyhthzgwb7c200000gp/T//ccxZVQ2H.s 			page 5


  61:Drivers/G4xx_LL_Driver/Src/g4xx_ll_gpio.c ****         }
  62:Drivers/G4xx_LL_Driver/Src/g4xx_ll_gpio.c ****     }
  63:Drivers/G4xx_LL_Driver/Src/g4xx_ll_gpio.c ****     else if (GPIOx->Init.MODE == INPUT)
 170              		.loc 1 63 25
 171 00be 7B68     		ldr	r3, [r7, #4]
 172 00c0 DB68     		ldr	r3, [r3, #12]
 173              		.loc 1 63 13
 174 00c2 002B     		cmp	r3, #0
 175 00c4 16D1     		bne	.L7
  64:Drivers/G4xx_LL_Driver/Src/g4xx_ll_gpio.c ****     {
  65:Drivers/G4xx_LL_Driver/Src/g4xx_ll_gpio.c ****         if (GPIOx->Init.PORT == 13)
 176              		.loc 1 65 24
 177 00c6 7B68     		ldr	r3, [r7, #4]
 178 00c8 9B68     		ldr	r3, [r3, #8]
 179              		.loc 1 65 12
 180 00ca 0D2B     		cmp	r3, #13
 181 00cc 14D1     		bne	.L6
  66:Drivers/G4xx_LL_Driver/Src/g4xx_ll_gpio.c ****         {
  67:Drivers/G4xx_LL_Driver/Src/g4xx_ll_gpio.c ****             GPIOx->Instance->MODER  |=  (INPUT << MODE13);
 182              		.loc 1 67 18
 183 00ce 7B68     		ldr	r3, [r7, #4]
 184 00d0 1A68     		ldr	r2, [r3]
 185 00d2 7B68     		ldr	r3, [r7, #4]
 186 00d4 1B68     		ldr	r3, [r3]
 187              		.loc 1 67 37
 188 00d6 1268     		ldr	r2, [r2]
 189 00d8 1A60     		str	r2, [r3]
  68:Drivers/G4xx_LL_Driver/Src/g4xx_ll_gpio.c ****             GPIOx->Instance->OSPEEDR    |=  (LOW_SPEED << OSPEEDR13);
 190              		.loc 1 68 18
 191 00da 7B68     		ldr	r3, [r7, #4]
 192 00dc 1A68     		ldr	r2, [r3]
 193 00de 7B68     		ldr	r3, [r7, #4]
 194 00e0 1B68     		ldr	r3, [r3]
 195              		.loc 1 68 41
 196 00e2 9268     		ldr	r2, [r2, #8]
 197 00e4 9A60     		str	r2, [r3, #8]
  69:Drivers/G4xx_LL_Driver/Src/g4xx_ll_gpio.c ****             GPIOx->Instance->PUPDR      |=  (NO_PULL << PUPDR13);
 198              		.loc 1 69 18
 199 00e6 7B68     		ldr	r3, [r7, #4]
 200 00e8 1A68     		ldr	r2, [r3]
 201 00ea 7B68     		ldr	r3, [r7, #4]
 202 00ec 1B68     		ldr	r3, [r3]
 203              		.loc 1 69 41
 204 00ee D268     		ldr	r2, [r2, #12]
 205 00f0 DA60     		str	r2, [r3, #12]
 206 00f2 01E0     		b	.L6
 207              	.L7:
  70:Drivers/G4xx_LL_Driver/Src/g4xx_ll_gpio.c ****         }
  71:Drivers/G4xx_LL_Driver/Src/g4xx_ll_gpio.c ****     }
  72:Drivers/G4xx_LL_Driver/Src/g4xx_ll_gpio.c ****     else
  73:Drivers/G4xx_LL_Driver/Src/g4xx_ll_gpio.c ****     {
  74:Drivers/G4xx_LL_Driver/Src/g4xx_ll_gpio.c ****         tmp_status = LL_ERROR;
 208              		.loc 1 74 20
 209 00f4 0123     		movs	r3, #1
 210 00f6 FB73     		strb	r3, [r7, #15]
 211              	.L6:
  75:Drivers/G4xx_LL_Driver/Src/g4xx_ll_gpio.c ****     }
ARM GAS  /var/folders/kw/xnk0gy0n665fyhthzgwb7c200000gp/T//ccxZVQ2H.s 			page 6


  76:Drivers/G4xx_LL_Driver/Src/g4xx_ll_gpio.c **** 
  77:Drivers/G4xx_LL_Driver/Src/g4xx_ll_gpio.c ****     return tmp_status;
 212              		.loc 1 77 12
 213 00f8 FB7B     		ldrb	r3, [r7, #15]	@ zero_extendqisi2
  78:Drivers/G4xx_LL_Driver/Src/g4xx_ll_gpio.c **** }...
 214              		.loc 1 78 1
 215 00fa 1846     		mov	r0, r3
 216 00fc 1437     		adds	r7, r7, #20
 217              	.LCFI3:
 218              		.cfi_def_cfa_offset 4
 219 00fe BD46     		mov	sp, r7
 220              	.LCFI4:
 221              		.cfi_def_cfa_register 13
 222              		@ sp needed
 223 0100 5DF8047B 		ldr	r7, [sp], #4
 224              	.LCFI5:
 225              		.cfi_restore 7
 226              		.cfi_def_cfa_offset 0
 227 0104 7047     		bx	lr
 228              	.L10:
 229 0106 00BF     		.align	2
 230              	.L9:
 231 0108 00100240 		.word	1073876992
 232 010c 00080048 		.word	1207961600
 233              		.cfi_endproc
 234              	.LFE135:
 236              		.text
 237              	.Letext0:
 238              		.file 2 "Core/Inc/main.h"
 239              		.file 3 "/usr/local/Cellar/arm-none-eabi-gcc/10.3-2021.07/gcc/arm-none-eabi/include/machine/_defau
 240              		.file 4 "/usr/local/Cellar/arm-none-eabi-gcc/10.3-2021.07/gcc/arm-none-eabi/include/sys/_stdint.h"
 241              		.file 5 "Drivers/CMSIS/Device/ST/STM32G4xx/Include/stm32g431xx.h"
 242              		.file 6 "Drivers/CMSIS/Device/ST/STM32G4xx/Include/stm32g4xx.h"
 243              		.file 7 "Drivers/G4xx_LL_Driver/Inc/g4xx_ll_gpio.h"
ARM GAS  /var/folders/kw/xnk0gy0n665fyhthzgwb7c200000gp/T//ccxZVQ2H.s 			page 7


DEFINED SYMBOLS
                            *ABS*:0000000000000000 g4xx_ll_gpio.c
/var/folders/kw/xnk0gy0n665fyhthzgwb7c200000gp/T//ccxZVQ2H.s:18     .text.LL_GPIO_Init:0000000000000000 $t
/var/folders/kw/xnk0gy0n665fyhthzgwb7c200000gp/T//ccxZVQ2H.s:26     .text.LL_GPIO_Init:0000000000000000 LL_GPIO_Init
/var/folders/kw/xnk0gy0n665fyhthzgwb7c200000gp/T//ccxZVQ2H.s:231    .text.LL_GPIO_Init:0000000000000108 $d
                           .group:0000000000000000 wm4.0.523ae1b9feed7684bfc464b822df8431
                           .group:0000000000000000 wm4.stm32g4xx_hal_conf.h.23.02df5696a01decde7303d3c5b49566b1
                           .group:0000000000000000 wm4.stm32g4xx.h.38.15f7fc3a143c96355d2ed83b1c947348
                           .group:0000000000000000 wm4.stm32g431xx.h.34.cbf8f5da9ca1b52b4586886f3b43f8e9
                           .group:0000000000000000 wm4._newlib_version.h.4.bfdf54b0af045d4a71376ae00f63a22c
                           .group:0000000000000000 wm4.features.h.33.318b64d71e0957639cfb30f1db1f7ec8
                           .group:0000000000000000 wm4._default_types.h.15.247e5cd201eca3442cbf5404108c4935
                           .group:0000000000000000 wm4._intsup.h.10.48bafbb683905c4daa4565a85aeeb264
                           .group:0000000000000000 wm4._stdint.h.10.c24fa3af3bc1706662bb5593a907e841
                           .group:0000000000000000 wm4.stdint.h.23.d53047a68f4a85177f80b422d52785ed
                           .group:0000000000000000 wm4.cmsis_version.h.32.46e8eccfa2cfeaae11d008bb2823a3ed
                           .group:0000000000000000 wm4.core_cm4.h.66.e4ff136c4a17abc46741866f64f8e729
                           .group:0000000000000000 wm4.cmsis_gcc.h.26.78077cef1206e937f7b56043ffca496a
                           .group:0000000000000000 wm4.core_cm4.h.174.fcddd62df80231752fa39eb9b61dadfe
                           .group:0000000000000000 wm4.mpu_armv7.h.32.4049752bb5792d4e15357775e9506cfc
                           .group:0000000000000000 wm4.stm32g431xx.h.625.1a6cf7e02a42d13941bdbd1458c0353a
                           .group:0000000000000000 wm4.stm32g4xx.h.148.b84431f60c04dec919429cc6a1856af1
                           .group:0000000000000000 wm4.stm32_hal_legacy.h.22.c373002c4ac2b7edb5ad44a8a33a687d
                           .group:0000000000000000 wm4.stddef.h.39.144cf5ddcd53cbfdac30259dc1a6c87f
                           .group:0000000000000000 wm4.stm32g4xx_hal_def.h.57.375901eadaa836c77bfb5d42cb20a7f7
                           .group:0000000000000000 wm4.stm32g4xx_hal_rcc.h.135.960fe522f53ce17df2a23954c98a41ce
                           .group:0000000000000000 wm4.stm32g4xx_hal_rcc_ex.h.20.155916afe6c77a457049fe03eb93b210
                           .group:0000000000000000 wm4.stm32g4xx_hal_gpio.h.21.2ca30689d7a5ad939e06f5298d557243
                           .group:0000000000000000 wm4.stm32g4xx_hal_gpio_ex.h.22.0005e7cc7ec5ad92b6c87b7e657ea958
                           .group:0000000000000000 wm4.stm32g4xx_hal_dma.h.21.96bcdff491b44e2fa7d02ecedca1b152
                           .group:0000000000000000 wm4.stm32g4xx_hal_dma_ex.h.21.93a1fe56678997ad72754076070f4a0d
                           .group:0000000000000000 wm4.stm32g4xx_hal_dma.h.803.dd88ea57b632f588d556f066658ac8d8
                           .group:0000000000000000 wm4.stm32g4xx_hal_cortex.h.20.66bf27ad12c421716e68db1a0438a428
                           .group:0000000000000000 wm4.stm32g4xx_hal_exti.h.21.723acd8e98480aae634680651af4eb2a
                           .group:0000000000000000 wm4.stm32g4xx_hal_flash.h.20.81e5327804dcac1dd0639b532518a797
                           .group:0000000000000000 wm4.stm32g4xx_hal_flash.h.870.fb58cd7fb7a1bb393dadb34dc381ceb7
                           .group:0000000000000000 wm4.stm32g4xx_hal_pwr.h.21.9b149e14c0ecf58cee46e8fb7f654b77
                           .group:0000000000000000 wm4.stm32g4xx_hal_pwr_ex.h.21.32206cbbd2cbec024b8600a98cfa3df7
                           .group:0000000000000000 wm4.stm32g4xx_hal.h.49.9039dffee593f01d0839484ae22c67ca
                           .group:0000000000000000 wm4.g4xx_ll.h.33.d78e0cdc67c390de919e2022761ed79e
                           .group:0000000000000000 wm4.newlib.h.8.7cb3972cd43265932d4782d5eb589854
                           .group:0000000000000000 wm4.ieeefp.h.77.c88535c35f465c05b101960cf0179075
                           .group:0000000000000000 wm4.config.h.224.c701144a7b0518c6ee9b9b5465b79f81
                           .group:0000000000000000 wm4._ansi.h.31.de524f58584151836e90d8620a16f8e8
                           .group:0000000000000000 wm4.stdio.h.31.7c0e28c411445f3f9c5b11accf882760
                           .group:0000000000000000 wm4.stddef.h.155.ba788add86a0e365f264484f110c3c29
                           .group:0000000000000000 wm4.cdefs.h.49.39045112216f6a021dbdffe3bf5accce
                           .group:0000000000000000 wm4.stdarg.h.34.3a23a216c0c293b3d2ea2e89281481e6
                           .group:0000000000000000 wm4._types.h.20.dd0d04dca3800a0d2a6129b87f3adbb2
                           .group:0000000000000000 wm4.stddef.h.155.3588ebfdd1e8c7ede80509bb9c3b8009
                           .group:0000000000000000 wm4._types.h.127.34941de1b2539d59d5cac00e0dd27a45
                           .group:0000000000000000 wm4.reent.h.17.e292bf8b0bec6c96e131a54347145a30
                           .group:0000000000000000 wm4.lock.h.2.1461d1fff82dffe8bfddc23307f6484f
                           .group:0000000000000000 wm4.reent.h.77.dcd6129ff07fe81bd5636db29abe53b2
                           .group:0000000000000000 wm4.types.h.40.8b6acba56cefbb11746718204edc8f5e
                           .group:0000000000000000 wm4._endian.h.31.65a10590763c3dde1ac4a7f66d7d4891
                           .group:0000000000000000 wm4.endian.h.9.49f3a4695c1b61e8a0808de3c4a106cb
ARM GAS  /var/folders/kw/xnk0gy0n665fyhthzgwb7c200000gp/T//ccxZVQ2H.s 			page 8


                           .group:0000000000000000 wm4._timeval.h.32.bec3221fa7a9bb0bdde696c9c57e47d2
                           .group:0000000000000000 wm4.timespec.h.41.d855182eb0e690443ab8651bcedca6e1
                           .group:0000000000000000 wm4.select.h.19.40cd3f2bfc456b193b790c2754690ebf
                           .group:0000000000000000 wm4.types.h.51.5571ec98f267d17d3c670b7a3ba33afa
                           .group:0000000000000000 wm4.sched.h.22.c60982713a5c428609783c78f9c78d95
                           .group:0000000000000000 wm4._pthreadtypes.h.36.fcee9961c35163dde6267ef772ad1972
                           .group:0000000000000000 wm4.stdio.h.2.4aa87247282eca6c8f36f9de33d8df1a
                           .group:0000000000000000 wm4.stdio.h.81.932d0c162786b883f622b8d05c120c78
                           .group:0000000000000000 wm4.stdbool.h.29.07dce69c3b78884144b7f7bd19483461
                           .group:0000000000000000 wm4.g4xx_ll_rcc.h.85.93cc8a2541276df11c17f4cfe103edf2
                           .group:0000000000000000 wm4.main.h.44.91974ce6c1da87ca8513232cfd92065a
                           .group:0000000000000000 wm4.g4xx_ll_gpio.h.71.6d326fc0c43d25d7ec0d62c293f12812

NO UNDEFINED SYMBOLS
